target datalayout = "e-m:e-p270:32:32-p271:32:32-p272:64:64-i64:64-i128:128-f80:128-n8:16:32:64-S128"
target triple = "x86_64-unknown-linux-gnu"

%struct.mz_stream_s = type { ptr, i32, i64, ptr, i32, i64, ptr, ptr, ptr, ptr, ptr, i32, i64, i64 }
%struct.tdefl_compressor = type { ptr, ptr, i32, [2 x i32], i32, i32, i32, i32, i32, ptr, ptr, ptr, ptr, i32, i32, i32, i32, i32, i32, i32, i32, i32, i32, i32, i32, i32, i32, ptr, ptr, ptr, ptr, i32, ptr, i64, i64, [33025 x i8], [3 x [288 x i16]], [3 x [288 x i16]], [3 x [288 x i8]], [65536 x i8], [32768 x i16], [32768 x i16], [85196 x i8] }

; Function Attrs: nounwind uwtable
define hidden i32 @tdefl_get_adler32(ptr noundef %d) #0 {
entry:
  %d.addr = alloca ptr, align 8
  store ptr %d, ptr %d.addr, align 8
  %0 = load ptr, ptr %d.addr, align 8
  %m_adler32 = getelementptr inbounds %struct.tdefl_compressor, ptr %0, i32 0, i32 5
  %1 = load i32, ptr %m_adler32, align 8
  ret i32 %1
}

; Function Attrs: nounwind uwtable
define hidden i32 @mz_deflate(ptr noundef %pStream, i32 noundef %flush) #0 {
entry:
  %retval = alloca i32, align 4
  %pStream.addr = alloca ptr, align 8
  %flush.addr = alloca i32, align 4
  %in_bytes = alloca i64, align 8
  %out_bytes = alloca i64, align 8
  %orig_total_in = alloca i64, align 8
  %orig_total_out = alloca i64, align 8
  %mz_status = alloca i32, align 4
  %defl_status = alloca i32, align 4
  store ptr %pStream, ptr %pStream.addr, align 8
  store i32 %flush, ptr %flush.addr, align 4
  store i32 0, ptr %mz_status, align 4
  %0 = load ptr, ptr %pStream.addr, align 8
  %tobool = icmp ne ptr %0, null
  br i1 %tobool, label %lor.lhs.false, label %if.then

lor.lhs.false:                                    ; preds = %entry
  %1 = load ptr, ptr %pStream.addr, align 8
  %state = getelementptr inbounds %struct.mz_stream_s, ptr %1, i32 0, i32 7
  %2 = load ptr, ptr %state, align 8
  %tobool1 = icmp ne ptr %2, null
  br i1 %tobool1, label %lor.lhs.false2, label %if.then

lor.lhs.false2:                                   ; preds = %lor.lhs.false
  %3 = load i32, ptr %flush.addr, align 4
  %cmp = icmp slt i32 %3, 0
  br i1 %cmp, label %if.then, label %lor.lhs.false3

lor.lhs.false3:                                   ; preds = %lor.lhs.false2
  %4 = load i32, ptr %flush.addr, align 4
  %cmp4 = icmp sgt i32 %4, 4
  br i1 %cmp4, label %if.then, label %lor.lhs.false5

lor.lhs.false5:                                   ; preds = %lor.lhs.false3
  %5 = load ptr, ptr %pStream.addr, align 8
  %next_out = getelementptr inbounds %struct.mz_stream_s, ptr %5, i32 0, i32 3
  %6 = load ptr, ptr %next_out, align 8
  %tobool6 = icmp ne ptr %6, null
  br i1 %tobool6, label %if.end, label %if.then

if.then:                                          ; preds = %lor.lhs.false5, %lor.lhs.false3, %lor.lhs.false2, %lor.lhs.false, %entry
  store i32 -2, ptr %retval, align 4
  br label %return

if.end:                                           ; preds = %lor.lhs.false5
  %7 = load ptr, ptr %pStream.addr, align 8
  %avail_out = getelementptr inbounds %struct.mz_stream_s, ptr %7, i32 0, i32 4
  %8 = load i32, ptr %avail_out, align 8
  %tobool7 = icmp ne i32 %8, 0
  br i1 %tobool7, label %if.end9, label %if.then8

if.then8:                                         ; preds = %if.end
  store i32 -5, ptr %retval, align 4
  br label %return

if.end9:                                          ; preds = %if.end
  %9 = load i32, ptr %flush.addr, align 4
  %cmp10 = icmp eq i32 %9, 1
  br i1 %cmp10, label %if.then11, label %if.end12

if.then11:                                        ; preds = %if.end9
  store i32 2, ptr %flush.addr, align 4
  br label %if.end12

if.end12:                                         ; preds = %if.then11, %if.end9
  %10 = load ptr, ptr %pStream.addr, align 8
  %state13 = getelementptr inbounds %struct.mz_stream_s, ptr %10, i32 0, i32 7
  %11 = load ptr, ptr %state13, align 8
  %m_prev_return_status = getelementptr inbounds %struct.tdefl_compressor, ptr %11, i32 0, i32 26
  %12 = load i32, ptr %m_prev_return_status, align 4
  %cmp14 = icmp eq i32 %12, 1
  br i1 %cmp14, label %if.then15, label %if.end17

if.then15:                                        ; preds = %if.end12
  %13 = load i32, ptr %flush.addr, align 4
  %cmp16 = icmp eq i32 %13, 4
  %cond = select i1 %cmp16, i32 1, i32 -5
  store i32 %cond, ptr %retval, align 4
  br label %return

if.end17:                                         ; preds = %if.end12
  %14 = load ptr, ptr %pStream.addr, align 8
  %total_in = getelementptr inbounds %struct.mz_stream_s, ptr %14, i32 0, i32 2
  %15 = load i64, ptr %total_in, align 8
  store i64 %15, ptr %orig_total_in, align 8
  %16 = load ptr, ptr %pStream.addr, align 8
  %total_out = getelementptr inbounds %struct.mz_stream_s, ptr %16, i32 0, i32 5
  %17 = load i64, ptr %total_out, align 8
  store i64 %17, ptr %orig_total_out, align 8
  br label %for.cond

for.cond:                                         ; preds = %if.end73, %if.end17
  %18 = load ptr, ptr %pStream.addr, align 8
  %avail_in = getelementptr inbounds %struct.mz_stream_s, ptr %18, i32 0, i32 1
  %19 = load i32, ptr %avail_in, align 8
  %conv = zext i32 %19 to i64
  store i64 %conv, ptr %in_bytes, align 8
  %20 = load ptr, ptr %pStream.addr, align 8
  %avail_out18 = getelementptr inbounds %struct.mz_stream_s, ptr %20, i32 0, i32 4
  %21 = load i32, ptr %avail_out18, align 8
  %conv19 = zext i32 %21 to i64
  store i64 %conv19, ptr %out_bytes, align 8
  %22 = load ptr, ptr %pStream.addr, align 8
  %state20 = getelementptr inbounds %struct.mz_stream_s, ptr %22, i32 0, i32 7
  %23 = load ptr, ptr %state20, align 8
  %24 = load ptr, ptr %pStream.addr, align 8
  %next_in = getelementptr inbounds %struct.mz_stream_s, ptr %24, i32 0, i32 0
  %25 = load ptr, ptr %next_in, align 8
  %26 = load ptr, ptr %pStream.addr, align 8
  %next_out21 = getelementptr inbounds %struct.mz_stream_s, ptr %26, i32 0, i32 3
  %27 = load ptr, ptr %next_out21, align 8
  %28 = load i32, ptr %flush.addr, align 4
  %call = call i32 @tdefl_compress(ptr noundef %23, ptr noundef %25, ptr noundef %in_bytes, ptr noundef %27, ptr noundef %out_bytes, i32 noundef %28)
  store i32 %call, ptr %defl_status, align 4
  %29 = load i64, ptr %in_bytes, align 8
  %conv22 = trunc i64 %29 to i32
  %30 = load ptr, ptr %pStream.addr, align 8
  %next_in23 = getelementptr inbounds %struct.mz_stream_s, ptr %30, i32 0, i32 0
  %31 = load ptr, ptr %next_in23, align 8
  %idx.ext = zext i32 %conv22 to i64
  %add.ptr = getelementptr inbounds i8, ptr %31, i64 %idx.ext
  store ptr %add.ptr, ptr %next_in23, align 8
  %32 = load i64, ptr %in_bytes, align 8
  %conv24 = trunc i64 %32 to i32
  %33 = load ptr, ptr %pStream.addr, align 8
  %avail_in25 = getelementptr inbounds %struct.mz_stream_s, ptr %33, i32 0, i32 1
  %34 = load i32, ptr %avail_in25, align 8
  %sub = sub i32 %34, %conv24
  store i32 %sub, ptr %avail_in25, align 8
  %35 = load i64, ptr %in_bytes, align 8
  %conv26 = trunc i64 %35 to i32
  %conv27 = zext i32 %conv26 to i64
  %36 = load ptr, ptr %pStream.addr, align 8
  %total_in28 = getelementptr inbounds %struct.mz_stream_s, ptr %36, i32 0, i32 2
  %37 = load i64, ptr %total_in28, align 8
  %add = add i64 %37, %conv27
  store i64 %add, ptr %total_in28, align 8
  %38 = load ptr, ptr %pStream.addr, align 8
  %state29 = getelementptr inbounds %struct.mz_stream_s, ptr %38, i32 0, i32 7
  %39 = load ptr, ptr %state29, align 8
  %call30 = call i32 @tdefl_get_adler32(ptr noundef %39)
  %conv31 = zext i32 %call30 to i64
  %40 = load ptr, ptr %pStream.addr, align 8
  %adler = getelementptr inbounds %struct.mz_stream_s, ptr %40, i32 0, i32 12
  store i64 %conv31, ptr %adler, align 8
  %41 = load i64, ptr %out_bytes, align 8
  %conv32 = trunc i64 %41 to i32
  %42 = load ptr, ptr %pStream.addr, align 8
  %next_out33 = getelementptr inbounds %struct.mz_stream_s, ptr %42, i32 0, i32 3
  %43 = load ptr, ptr %next_out33, align 8
  %idx.ext34 = zext i32 %conv32 to i64
  %add.ptr35 = getelementptr inbounds i8, ptr %43, i64 %idx.ext34
  store ptr %add.ptr35, ptr %next_out33, align 8
  %44 = load i64, ptr %out_bytes, align 8
  %conv36 = trunc i64 %44 to i32
  %45 = load ptr, ptr %pStream.addr, align 8
  %avail_out37 = getelementptr inbounds %struct.mz_stream_s, ptr %45, i32 0, i32 4
  %46 = load i32, ptr %avail_out37, align 8
  %sub38 = sub i32 %46, %conv36
  store i32 %sub38, ptr %avail_out37, align 8
  %47 = load i64, ptr %out_bytes, align 8
  %conv39 = trunc i64 %47 to i32
  %conv40 = zext i32 %conv39 to i64
  %48 = load ptr, ptr %pStream.addr, align 8
  %total_out41 = getelementptr inbounds %struct.mz_stream_s, ptr %48, i32 0, i32 5
  %49 = load i64, ptr %total_out41, align 8
  %add42 = add i64 %49, %conv40
  store i64 %add42, ptr %total_out41, align 8
  %50 = load i32, ptr %defl_status, align 4
  %cmp43 = icmp slt i32 %50, 0
  br i1 %cmp43, label %if.then45, label %if.else

if.then45:                                        ; preds = %for.cond
  store i32 -2, ptr %mz_status, align 4
  br label %for.end

if.else:                                          ; preds = %for.cond
  %51 = load i32, ptr %defl_status, align 4
  %cmp46 = icmp eq i32 %51, 1
  br i1 %cmp46, label %if.then48, label %if.else49

if.then48:                                        ; preds = %if.else
  store i32 1, ptr %mz_status, align 4
  br label %for.end

if.else49:                                        ; preds = %if.else
  %52 = load ptr, ptr %pStream.addr, align 8
  %avail_out50 = getelementptr inbounds %struct.mz_stream_s, ptr %52, i32 0, i32 4
  %53 = load i32, ptr %avail_out50, align 8
  %tobool51 = icmp ne i32 %53, 0
  br i1 %tobool51, label %if.else53, label %if.then52

if.then52:                                        ; preds = %if.else49
  br label %for.end

if.else53:                                        ; preds = %if.else49
  %54 = load ptr, ptr %pStream.addr, align 8
  %avail_in54 = getelementptr inbounds %struct.mz_stream_s, ptr %54, i32 0, i32 1
  %55 = load i32, ptr %avail_in54, align 8
  %tobool55 = icmp ne i32 %55, 0
  br i1 %tobool55, label %if.end70, label %land.lhs.true

land.lhs.true:                                    ; preds = %if.else53
  %56 = load i32, ptr %flush.addr, align 4
  %cmp56 = icmp ne i32 %56, 4
  br i1 %cmp56, label %if.then58, label %if.end70

if.then58:                                        ; preds = %land.lhs.true
  %57 = load i32, ptr %flush.addr, align 4
  %tobool59 = icmp ne i32 %57, 0
  br i1 %tobool59, label %if.then68, label %lor.lhs.false60

lor.lhs.false60:                                  ; preds = %if.then58
  %58 = load ptr, ptr %pStream.addr, align 8
  %total_in61 = getelementptr inbounds %struct.mz_stream_s, ptr %58, i32 0, i32 2
  %59 = load i64, ptr %total_in61, align 8
  %60 = load i64, ptr %orig_total_in, align 8
  %cmp62 = icmp ne i64 %59, %60
  br i1 %cmp62, label %if.then68, label %lor.lhs.false64

lor.lhs.false64:                                  ; preds = %lor.lhs.false60
  %61 = load ptr, ptr %pStream.addr, align 8
  %total_out65 = getelementptr inbounds %struct.mz_stream_s, ptr %61, i32 0, i32 5
  %62 = load i64, ptr %total_out65, align 8
  %63 = load i64, ptr %orig_total_out, align 8
  %cmp66 = icmp ne i64 %62, %63
  br i1 %cmp66, label %if.then68, label %if.end69

if.then68:                                        ; preds = %lor.lhs.false64, %lor.lhs.false60, %if.then58
  br label %for.end

if.end69:                                         ; preds = %lor.lhs.false64
  store i32 -5, ptr %retval, align 4
  br label %return

if.end70:                                         ; preds = %land.lhs.true, %if.else53
  br label %if.end71

if.end71:                                         ; preds = %if.end70
  br label %if.end72

if.end72:                                         ; preds = %if.end71
  br label %if.end73

if.end73:                                         ; preds = %if.end72
  br label %for.cond

for.end:                                          ; preds = %if.then68, %if.then52, %if.then48, %if.then45
  %64 = load i32, ptr %mz_status, align 4
  store i32 %64, ptr %retval, align 4
  br label %return

return:                                           ; preds = %for.end, %if.end69, %if.then15, %if.then8, %if.then
  %65 = load i32, ptr %retval, align 4
  ret i32 %65
}