; Function Attrs: nounwind uwtable
define hidden range(i32 -5, 2) i32 @mz_deflate(ptr noundef %pStream, i32 noundef %flush) local_unnamed_addr #4 {
entry:
  %in_bytes = alloca i64, align 8
  %out_bytes = alloca i64, align 8
  %tobool.not = icmp eq ptr %pStream, null
  br i1 %tobool.not, label %return, label %lor.lhs.false

lor.lhs.false:                                    ; preds = %entry
  %state = getelementptr inbounds nuw i8, ptr %pStream, i64 56
  %0 = load ptr, ptr %state, align 8
  %tobool1 = icmp eq ptr %0, null
  %1 = icmp ugt i32 %flush, 4
  %or.cond1 = or i1 %1, %tobool1
  br i1 %or.cond1, label %return, label %lor.lhs.false5

lor.lhs.false5:                                   ; preds = %lor.lhs.false
  %next_out = getelementptr inbounds nuw i8, ptr %pStream, i64 24
  %2 = load ptr, ptr %next_out, align 8
  %tobool6.not = icmp eq ptr %2, null
  br i1 %tobool6.not, label %return, label %if.end

if.end:                                           ; preds = %lor.lhs.false5
  %avail_out = getelementptr inbounds nuw i8, ptr %pStream, i64 32
  %3 = load i32, ptr %avail_out, align 8
  %tobool7.not = icmp eq i32 %3, 0
  br i1 %tobool7.not, label %return, label %if.end9

if.end9:                                          ; preds = %if.end
  %cmp10 = icmp eq i32 %flush, 1
  %spec.store.select = select i1 %cmp10, i32 2, i32 %flush
  %m_prev_return_status = getelementptr inbounds nuw i8, ptr %0, i64 132
  %4 = load i32, ptr %m_prev_return_status, align 4
  %cmp14 = icmp eq i32 %4, 1
  br i1 %cmp14, label %if.then15, label %if.end17

if.then15:                                        ; preds = %if.end9
  %cmp16 = icmp eq i32 %spec.store.select, 4
  %cond = select i1 %cmp16, i32 1, i32 -5
  br label %return

if.end17:                                         ; preds = %if.end9
  %total_in = getelementptr inbounds nuw i8, ptr %pStream, i64 16
  %5 = load i64, ptr %total_in, align 8
  %total_out = getelementptr inbounds nuw i8, ptr %pStream, i64 40
  %6 = load i64, ptr %total_out, align 8
  %avail_in = getelementptr inbounds nuw i8, ptr %pStream, i64 8
  %adler = getelementptr inbounds nuw i8, ptr %pStream, i64 96
  %cmp56.not = icmp eq i32 %spec.store.select, 4
  %.pre40 = load i32, ptr %avail_in, align 8
  %.pre41 = load ptr, ptr %pStream, align 8
  br i1 %cmp56.not, label %for.cond.us, label %for.cond

for.cond.us:                                      ; preds = %if.end17, %if.else49.us
  %7 = phi ptr [ %add.ptr35.us, %if.else49.us ], [ %2, %if.end17 ]
  %8 = phi ptr [ %add.ptr.us, %if.else49.us ], [ %.pre41, %if.end17 ]
  %9 = phi ptr [ %16, %if.else49.us ], [ %0, %if.end17 ]
  %10 = phi i32 [ %sub38.us, %if.else49.us ], [ %3, %if.end17 ]
  %11 = phi i32 [ %sub.us, %if.else49.us ], [ %.pre40, %if.end17 ]
  %conv.us = zext i32 %11 to i64
  store i64 %conv.us, ptr %in_bytes, align 8
  %conv19.us = zext i32 %10 to i64
  store i64 %conv19.us, ptr %out_bytes, align 8
  %call.us = call i32 @tdefl_compress(ptr noundef nonnull %9, ptr noundef %8, ptr noundef nonnull %in_bytes, ptr noundef %7, ptr noundef nonnull %out_bytes, i32 noundef 4)
  %12 = load i64, ptr %in_bytes, align 8
  %13 = load ptr, ptr %pStream, align 8
  %idx.ext.us = and i64 %12, 4294967295
  %add.ptr.us = getelementptr inbounds nuw i8, ptr %13, i64 %idx.ext.us
  store ptr %add.ptr.us, ptr %pStream, align 8
  %conv24.us = trunc i64 %12 to i32
  %14 = load i32, ptr %avail_in, align 8
  %sub.us = sub i32 %14, %conv24.us
  store i32 %sub.us, ptr %avail_in, align 8
  %15 = load i64, ptr %total_in, align 8
  %add.us = add i64 %15, %idx.ext.us
  store i64 %add.us, ptr %total_in, align 8
  %16 = load ptr, ptr %state, align 8
  %m_adler32.i.us = getelementptr inbounds nuw i8, ptr %16, i64 32
  %17 = load i32, ptr %m_adler32.i.us, align 8
  %conv31.us = zext i32 %17 to i64
  store i64 %conv31.us, ptr %adler, align 8
  %18 = load i64, ptr %out_bytes, align 8
  %19 = load ptr, ptr %next_out, align 8
  %idx.ext34.us = and i64 %18, 4294967295
  %add.ptr35.us = getelementptr inbounds nuw i8, ptr %19, i64 %idx.ext34.us
  store ptr %add.ptr35.us, ptr %next_out, align 8
  %conv36.us = trunc i64 %18 to i32
  %20 = load i32, ptr %avail_out, align 8
  %sub38.us = sub i32 %20, %conv36.us
  store i32 %sub38.us, ptr %avail_out, align 8
  %21 = load i64, ptr %total_out, align 8
  %add42.us = add i64 %21, %idx.ext34.us
  store i64 %add42.us, ptr %total_out, align 8
  %cmp43.us = icmp slt i32 %call.us, 0
  br i1 %cmp43.us, label %return, label %if.else.us

if.else.us:                                       ; preds = %for.cond.us
  %cmp46.us = icmp eq i32 %call.us, 1
  br i1 %cmp46.us, label %return, label %if.else49.us

if.else49.us:                                     ; preds = %if.else.us
  %tobool51.not.us = icmp eq i32 %20, %conv36.us
  br i1 %tobool51.not.us, label %return, label %for.cond.us

for.cond:                                         ; preds = %if.end17, %if.else53
  %22 = phi ptr [ %add.ptr35, %if.else53 ], [ %2, %if.end17 ]
  %23 = phi ptr [ %add.ptr, %if.else53 ], [ %.pre41, %if.end17 ]
  %24 = phi ptr [ %31, %if.else53 ], [ %0, %if.end17 ]
  %25 = phi i32 [ %sub38, %if.else53 ], [ %3, %if.end17 ]
  %26 = phi i32 [ %sub, %if.else53 ], [ %.pre40, %if.end17 ]
  %conv = zext i32 %26 to i64
  store i64 %conv, ptr %in_bytes, align 8
  %conv19 = zext i32 %25 to i64
  store i64 %conv19, ptr %out_bytes, align 8
  %call = call i32 @tdefl_compress(ptr noundef nonnull %24, ptr noundef %23, ptr noundef nonnull %in_bytes, ptr noundef %22, ptr noundef nonnull %out_bytes, i32 noundef %spec.store.select)
  %27 = load i64, ptr %in_bytes, align 8
  %28 = load ptr, ptr %pStream, align 8
  %idx.ext = and i64 %27, 4294967295
  %add.ptr = getelementptr inbounds nuw i8, ptr %28, i64 %idx.ext
  store ptr %add.ptr, ptr %pStream, align 8
  %conv24 = trunc i64 %27 to i32
  %29 = load i32, ptr %avail_in, align 8
  %sub = sub i32 %29, %conv24
  store i32 %sub, ptr %avail_in, align 8
  %30 = load i64, ptr %total_in, align 8
  %add = add i64 %30, %idx.ext
  store i64 %add, ptr %total_in, align 8
  %31 = load ptr, ptr %state, align 8
  %m_adler32.i = getelementptr inbounds nuw i8, ptr %31, i64 32
  %32 = load i32, ptr %m_adler32.i, align 8
  %conv31 = zext i32 %32 to i64
  store i64 %conv31, ptr %adler, align 8
  %33 = load i64, ptr %out_bytes, align 8
  %34 = load ptr, ptr %next_out, align 8
  %idx.ext34 = and i64 %33, 4294967295
  %add.ptr35 = getelementptr inbounds nuw i8, ptr %34, i64 %idx.ext34
  store ptr %add.ptr35, ptr %next_out, align 8
  %conv36 = trunc i64 %33 to i32
  %35 = load i32, ptr %avail_out, align 8
  %sub38 = sub i32 %35, %conv36
  store i32 %sub38, ptr %avail_out, align 8
  %36 = load i64, ptr %total_out, align 8
  %add42 = add i64 %36, %idx.ext34
  store i64 %add42, ptr %total_out, align 8
  %cmp43 = icmp slt i32 %call, 0
  br i1 %cmp43, label %return, label %if.else

if.else:                                          ; preds = %for.cond
  %cmp46 = icmp eq i32 %call, 1
  br i1 %cmp46, label %return, label %if.else49

if.else49:                                        ; preds = %if.else
  %tobool51.not = icmp eq i32 %35, %conv36
  br i1 %tobool51.not, label %return, label %if.else53

if.else53:                                        ; preds = %if.else49
  %tobool55 = icmp eq i32 %29, %conv24
  br i1 %tobool55, label %if.then58, label %for.cond

if.then58:                                        ; preds = %if.else53
  %tobool59.not = icmp eq i32 %spec.store.select, 0
  br i1 %tobool59.not, label %lor.lhs.false60, label %return

lor.lhs.false60:                                  ; preds = %if.then58
  %cmp62.not = icmp eq i64 %add, %5
  %cmp66.not = icmp eq i64 %add42, %6
  %or.cond = select i1 %cmp62.not, i1 %cmp66.not, i1 false
  %spec.select = select i1 %or.cond, i32 -5, i32 0
  br label %return

return:                                           ; preds = %if.else, %for.cond, %if.else49, %if.else49.us, %if.else.us, %for.cond.us, %lor.lhs.false60, %if.then58, %if.end, %entry, %lor.lhs.false, %lor.lhs.false5, %if.then15
  %retval.0 = phi i32 [ %cond, %if.then15 ], [ -2, %lor.lhs.false5 ], [ -2, %lor.lhs.false ], [ -2, %entry ], [ -5, %if.end ], [ 0, %if.then58 ], [ %spec.select, %lor.lhs.false60 ], [ 1, %if.else.us ], [ -2, %for.cond.us ], [ 0, %if.else49.us ], [ 1, %if.else ], [ -2, %for.cond ], [ 0, %if.else49 ]
  ret i32 %retval.0
}